; Function Attrs: nounwind uwtable
define hidden void @lxb_html_tree_close_p_element(ptr noundef %0, ptr noundef %1) local_unnamed_addr #0 {
  %3 = getelementptr inbounds i8, ptr %0, i64 32
  %4 = load ptr, ptr %3, align 8
  %5 = getelementptr i8, ptr %4, i64 16
  %.val79.i = load i64, ptr %5, align 8
  %.not10.i = icmp eq i64 %.val79.i, 0
  br i1 %.not10.i, label %lxb_html_tree_current_node.exit, label %lxb_html_tree_current_node.exit.i

lxb_html_tree_current_node.exit.i:                ; preds = %2, %17
  %.val711.i = phi i64 [ %.val7.i, %17 ], [ %.val79.i, %2 ]
  %6 = phi ptr [ %19, %17 ], [ %4, %2 ]
  %7 = load ptr, ptr %6, align 8
  %8 = getelementptr ptr, ptr %7, i64 %.val711.i
  %9 = getelementptr i8, ptr %8, i64 -8
  %10 = load ptr, ptr %9, align 8
  %11 = getelementptr inbounds i8, ptr %10, i64 8
  %12 = load i64, ptr %11, align 8
  switch i64 %12, label %lxb_html_tree_generate_implied_end_tags.exit [
    i64 145, label %13
    i64 44, label %17
    i64 53, label %17
    i64 113, label %17
    i64 142, label %17
    i64 143, label %17
    i64 154, label %17
    i64 155, label %17
    i64 156, label %17
    i64 157, label %17
  ]

13:                                               ; preds = %lxb_html_tree_current_node.exit.i
  %14 = getelementptr inbounds i8, ptr %10, i64 24
  %15 = load i64, ptr %14, align 8
  %16 = icmp eq i64 %15, 2
  br i1 %16, label %lxb_html_tree_generate_implied_end_tags.exit, label %17

17:                                               ; preds = %lxb_html_tree_current_node.exit.i, %lxb_html_tree_current_node.exit.i, %lxb_html_tree_current_node.exit.i, %lxb_html_tree_current_node.exit.i, %lxb_html_tree_current_node.exit.i, %lxb_html_tree_current_node.exit.i, %lxb_html_tree_current_node.exit.i, %lxb_html_tree_current_node.exit.i, %lxb_html_tree_current_node.exit.i, %13
  %18 = tail call ptr @lexbor_array_pop(ptr noundef nonnull %6) #9
  %19 = load ptr, ptr %3, align 8
  %20 = getelementptr i8, ptr %19, i64 16
  %.val7.i = load i64, ptr %20, align 8
  %.not.i = icmp eq i64 %.val7.i, 0
  br i1 %.not.i, label %lxb_html_tree_generate_implied_end_tags.exit, label %lxb_html_tree_current_node.exit.i

lxb_html_tree_generate_implied_end_tags.exit:     ; preds = %lxb_html_tree_current_node.exit.i, %13, %17
  %.val6 = phi ptr [ %19, %17 ], [ %6, %13 ], [ %6, %lxb_html_tree_current_node.exit.i ]
  %.phi.trans.insert = getelementptr inbounds i8, ptr %.val6, i64 16
  %.pre = load i64, ptr %.phi.trans.insert, align 8
  %21 = icmp eq i64 %.pre, 0
  br i1 %21, label %lxb_html_tree_current_node.exit, label %22

22:                                               ; preds = %lxb_html_tree_generate_implied_end_tags.exit
  %23 = load ptr, ptr %.val6, align 8
  %24 = getelementptr ptr, ptr %23, i64 %.pre
  %25 = getelementptr i8, ptr %24, i64 -8
  %26 = load ptr, ptr %25, align 8
  br label %lxb_html_tree_current_node.exit

lxb_html_tree_current_node.exit:                  ; preds = %2, %lxb_html_tree_generate_implied_end_tags.exit, %22
  %.0.i = phi ptr [ %26, %22 ], [ null, %lxb_html_tree_generate_implied_end_tags.exit ], [ null, %2 ]
  %27 = getelementptr inbounds i8, ptr %.0.i, i64 8
  %28 = load i64, ptr %27, align 8
  %29 = icmp eq i64 %28, 145
  br i1 %29, label %lxb_html_tree_node_is.exit, label %lxb_html_tree_node_is.exit.thread

lxb_html_tree_node_is.exit:                       ; preds = %lxb_html_tree_current_node.exit
  %30 = getelementptr inbounds i8, ptr %.0.i, i64 24
  %31 = load i64, ptr %30, align 8
  %32 = icmp eq i64 %31, 2
  br i1 %32, label %36, label %lxb_html_tree_node_is.exit.thread

lxb_html_tree_node_is.exit.thread:                ; preds = %lxb_html_tree_current_node.exit, %lxb_html_tree_node_is.exit
  %33 = getelementptr inbounds i8, ptr %0, i64 72
  %34 = load ptr, ptr %33, align 8
  %35 = tail call ptr @lxb_html_tree_error_add(ptr noundef %34, ptr noundef %1, i32 noundef 22) #9
  br label %36

36:                                               ; preds = %lxb_html_tree_node_is.exit.thread, %lxb_html_tree_node_is.exit
  tail call void @lxb_html_tree_open_elements_pop_until_tag_id(ptr noundef nonnull %0, i64 noundef 145, i64 noundef 2, i1 noundef zeroext true) #9
  ret void
}